; Function Attrs: nounwind uwtable
define noundef i32 @redisAsyncSetConnectCallbackNC(ptr nocapture noundef %ac, ptr noundef %fn) local_unnamed_addr #0 {
entry:
  %onConnect.i = getelementptr inbounds i8, ptr %ac, i64 368
  %0 = load ptr, ptr %onConnect.i, align 8
  %tobool.not.i = icmp eq ptr %0, null
  br i1 %tobool.not.i, label %lor.lhs.false.i, label %redisAsyncSetConnectCallbackImpl.exit

lor.lhs.false.i:                                  ; preds = %entry
  %onConnectNC.i = getelementptr inbounds i8, ptr %ac, i64 376
  %1 = load ptr, ptr %onConnectNC.i, align 8
  %tobool1.not.i = icmp eq ptr %1, null
  br i1 %tobool1.not.i, label %if.end.i, label %redisAsyncSetConnectCallbackImpl.exit

if.end.i:                                         ; preds = %lor.lhs.false.i
  %tobool5.not.i = icmp eq ptr %fn, null
  br i1 %tobool5.not.i, label %do.body.i, label %if.then6.i

if.then6.i:                                       ; preds = %if.end.i
  store ptr %fn, ptr %onConnectNC.i, align 8
  br label %do.body.i

do.body.i:                                        ; preds = %if.then6.i, %if.end.i
  %flags.i.i = getelementptr inbounds i8, ptr %ac, i64 144
  %2 = load i32, ptr %flags.i.i, align 8
  %and.i.i = and i32 %2, 2
  %tobool.not.i.i = icmp eq i32 %and.i.i, 0
  %ev17.i.i = getelementptr inbounds i8, ptr %ac, i64 304
  %scheduleTimer18.i.i = getelementptr inbounds i8, ptr %ac, i64 352
  %3 = load ptr, ptr %scheduleTimer18.i.i, align 8
  %tobool19.not.i.i = icmp eq ptr %3, null
  br i1 %tobool.not.i.i, label %if.else.i.i, label %if.then.i.i

if.then.i.i:                                      ; preds = %do.body.i
  br i1 %tobool19.not.i.i, label %refreshTimeout.exit.i, label %land.lhs.true.i.i

land.lhs.true.i.i:                                ; preds = %if.then.i.i
  %command_timeout.i.i = getelementptr inbounds i8, ptr %ac, i64 184
  %4 = load ptr, ptr %command_timeout.i.i, align 8
  %tobool3.not.i.i = icmp eq ptr %4, null
  br i1 %tobool3.not.i.i, label %refreshTimeout.exit.i, label %land.lhs.true4.i.i

land.lhs.true4.i.i:                               ; preds = %land.lhs.true.i.i
  %5 = load i64, ptr %4, align 8
  %tobool7.not.i.i = icmp eq i64 %5, 0
  %tv_usec.i.i = getelementptr inbounds i8, ptr %4, i64 8
  %6 = load i64, ptr %tv_usec.i.i, align 8
  %tobool10.not.i.i = icmp eq i64 %6, 0
  %or.cond.i.i = select i1 %tobool7.not.i.i, i1 %tobool10.not.i.i, i1 false
  br i1 %or.cond.i.i, label %refreshTimeout.exit.i, label %if.then11.i.i

if.then11.i.i:                                    ; preds = %land.lhs.true4.i.i
  %7 = load ptr, ptr %ev17.i.i, align 8
  tail call void %3(ptr noundef %7, i64 %5, i64 %6) #14
  br label %refreshTimeout.exit.i

if.else.i.i:                                      ; preds = %do.body.i
  br i1 %tobool19.not.i.i, label %refreshTimeout.exit.i, label %land.lhs.true20.i.i

land.lhs.true20.i.i:                              ; preds = %if.else.i.i
  %connect_timeout.i.i = getelementptr inbounds i8, ptr %ac, i64 176
  %8 = load ptr, ptr %connect_timeout.i.i, align 8
  %tobool22.not.i.i = icmp eq ptr %8, null
  br i1 %tobool22.not.i.i, label %refreshTimeout.exit.i, label %land.lhs.true23.i.i

land.lhs.true23.i.i:                              ; preds = %land.lhs.true20.i.i
  %9 = load i64, ptr %8, align 8
  %tobool27.not.i.i = icmp eq i64 %9, 0
  %tv_usec31.i.i = getelementptr inbounds i8, ptr %8, i64 8
  %10 = load i64, ptr %tv_usec31.i.i, align 8
  %tobool32.not.i.i = icmp eq i64 %10, 0
  %or.cond18.i.i = select i1 %tobool27.not.i.i, i1 %tobool32.not.i.i, i1 false
  br i1 %or.cond18.i.i, label %refreshTimeout.exit.i, label %if.then33.i.i

if.then33.i.i:                                    ; preds = %land.lhs.true23.i.i
  %11 = load ptr, ptr %ev17.i.i, align 8
  tail call void %3(ptr noundef %11, i64 %9, i64 %10) #14
  br label %refreshTimeout.exit.i

refreshTimeout.exit.i:                            ; preds = %if.then33.i.i, %land.lhs.true23.i.i, %land.lhs.true20.i.i, %if.else.i.i, %if.then11.i.i, %land.lhs.true4.i.i, %land.lhs.true.i.i, %if.then.i.i
  %addWrite.i = getelementptr inbounds i8, ptr %ac, i64 328
  %12 = load ptr, ptr %addWrite.i, align 8
  %tobool10.not.i = icmp eq ptr %12, null
  br i1 %tobool10.not.i, label %redisAsyncSetConnectCallbackImpl.exit, label %if.then11.i

if.then11.i:                                      ; preds = %refreshTimeout.exit.i
  %13 = load ptr, ptr %ev17.i.i, align 8
  tail call void %12(ptr noundef %13) #14
  br label %redisAsyncSetConnectCallbackImpl.exit

redisAsyncSetConnectCallbackImpl.exit:            ; preds = %entry, %lor.lhs.false.i, %refreshTimeout.exit.i, %if.then11.i
  %retval.0.i = phi i32 [ -1, %lor.lhs.false.i ], [ -1, %entry ], [ 0, %refreshTimeout.exit.i ], [ 0, %if.then11.i ]
  ret i32 %retval.0.i
}